target datalayout = "e-m:e-p270:32:32-p271:32:32-p272:64:64-i64:64-i128:128-f80:128-n8:16:32:64-S128"
target triple = "x86_64-pc-linux-gnu"

%class.CryptData = type { [4 x %"struct.CryptData::KDF3CacheItem"], i32, [4 x i8], [4 x %"struct.CryptData::KDF5CacheItem"], i32, i32, %class.Rijndael, [256 x i32], [256 x i8], [4 x i32], [3 x i8], [4 x i16], [4 x i8] }
%"struct.CryptData::KDF3CacheItem" = type { %class.SecPassword, [8 x i8], [16 x i8], [16 x i8], i8, [7 x i8] }
%class.SecPassword = type <{ %"class.std::vector", i8, [7 x i8] }>
%"class.std::vector" = type { %"struct.std::_Vector_base" }
%"struct.std::_Vector_base" = type { %"struct.std::_Vector_base<wchar_t, std::allocator<wchar_t>>::_Vector_impl" }
%"struct.std::_Vector_base<wchar_t, std::allocator<wchar_t>>::_Vector_impl" = type { %"struct.std::_Vector_base<wchar_t, std::allocator<wchar_t>>::_Vector_impl_data" }
%"struct.std::_Vector_base<wchar_t, std::allocator<wchar_t>>::_Vector_impl_data" = type { ptr, ptr, ptr }
%"struct.CryptData::KDF5CacheItem" = type { %class.SecPassword, [16 x i8], [32 x i8], i32, [32 x i8], [32 x i8], [4 x i8] }
%class.Rijndael = type { i8, i32, [16 x i8], [15 x [4 x [4 x i8]]] }

; Function Attrs: mustprogress uwtable
define linkonce_odr void @_ZN9CryptData13KDF5CacheItem5CleanEv(ptr noundef nonnull align 8 dereferenceable(148) %0) #1 comdat align 2 {
  %2 = alloca ptr, align 8
  store ptr %0, ptr %2, align 8
  %3 = load ptr, ptr %2, align 8
  %4 = getelementptr inbounds %"struct.CryptData::KDF5CacheItem", ptr %3, i32 0, i32 1
  %5 = getelementptr inbounds [16 x i8], ptr %4, i64 0, i64 0
  call void @_Z9cleandataPvm(ptr noundef %5, i64 noundef 16)
  %6 = getelementptr inbounds %"struct.CryptData::KDF5CacheItem", ptr %3, i32 0, i32 2
  %7 = getelementptr inbounds [32 x i8], ptr %6, i64 0, i64 0
  call void @_Z9cleandataPvm(ptr noundef %7, i64 noundef 32)
  %8 = getelementptr inbounds %"struct.CryptData::KDF5CacheItem", ptr %3, i32 0, i32 3
  call void @_Z9cleandataPvm(ptr noundef %8, i64 noundef 4)
  %9 = getelementptr inbounds %"struct.CryptData::KDF5CacheItem", ptr %3, i32 0, i32 4
  %10 = getelementptr inbounds [32 x i8], ptr %9, i64 0, i64 0
  call void @_Z9cleandataPvm(ptr noundef %10, i64 noundef 32)
  %11 = getelementptr inbounds %"struct.CryptData::KDF5CacheItem", ptr %3, i32 0, i32 5
  %12 = getelementptr inbounds [32 x i8], ptr %11, i64 0, i64 0
  call void @_Z9cleandataPvm(ptr noundef %12, i64 noundef 32)
  ret void
}

; Function Attrs: mustprogress uwtable
define linkonce_odr void @_ZN9CryptData13KDF3CacheItem5CleanEv(ptr noundef nonnull align 8 dereferenceable(73) %0) #1 comdat align 2 {
  %2 = alloca ptr, align 8
  store ptr %0, ptr %2, align 8
  %3 = load ptr, ptr %2, align 8
  %4 = getelementptr inbounds %"struct.CryptData::KDF3CacheItem", ptr %3, i32 0, i32 1
  %5 = getelementptr inbounds [8 x i8], ptr %4, i64 0, i64 0
  call void @_Z9cleandataPvm(ptr noundef %5, i64 noundef 8)
  %6 = getelementptr inbounds %"struct.CryptData::KDF3CacheItem", ptr %3, i32 0, i32 2
  %7 = getelementptr inbounds [16 x i8], ptr %6, i64 0, i64 0
  call void @_Z9cleandataPvm(ptr noundef %7, i64 noundef 16)
  %8 = getelementptr inbounds %"struct.CryptData::KDF3CacheItem", ptr %3, i32 0, i32 3
  %9 = getelementptr inbounds [16 x i8], ptr %8, i64 0, i64 0
  call void @_Z9cleandataPvm(ptr noundef %9, i64 noundef 16)
  %10 = getelementptr inbounds %"struct.CryptData::KDF3CacheItem", ptr %3, i32 0, i32 4
  call void @_Z9cleandataPvm(ptr noundef %10, i64 noundef 1)
  ret void
}

; Function Attrs: mustprogress uwtable
define linkonce_odr void @_ZN9CryptData13KDF5CacheItemC2Ev(ptr noundef nonnull align 8 dereferenceable(148) %0) unnamed_addr #1 comdat align 2 personality ptr @__gxx_personality_v0 {
  %2 = alloca ptr, align 8
  %3 = alloca ptr, align 8
  %4 = alloca i32, align 4
  store ptr %0, ptr %2, align 8
  %5 = load ptr, ptr %2, align 8
  %6 = getelementptr inbounds %"struct.CryptData::KDF5CacheItem", ptr %5, i32 0, i32 0
  call void @_ZN11SecPasswordC1Ev(ptr noundef nonnull align 8 dereferenceable(25) %6)
  invoke void @_ZN9CryptData13KDF5CacheItem5CleanEv(ptr noundef nonnull align 8 dereferenceable(148) %5)
          to label %7 unwind label %8

7:                                                ; preds = %1
  ret void

8:                                                ; preds = %1
  %9 = landingpad { ptr, i32 }
          cleanup
  %10 = extractvalue { ptr, i32 } %9, 0
  store ptr %10, ptr %3, align 8
  %11 = extractvalue { ptr, i32 } %9, 1
  store i32 %11, ptr %4, align 4
  call void @_ZN11SecPasswordD1Ev(ptr noundef nonnull align 8 dereferenceable(25) %6) #13
  br label %12

12:                                               ; preds = %8
  %13 = load ptr, ptr %3, align 8
  %14 = load i32, ptr %4, align 4
  %15 = insertvalue { ptr, i32 } poison, ptr %13, 0
  %16 = insertvalue { ptr, i32 } %15, i32 %14, 1
  resume { ptr, i32 } %16
}

; Function Attrs: mustprogress uwtable
define linkonce_odr void @_ZN9CryptData13KDF3CacheItemC2Ev(ptr noundef nonnull align 8 dereferenceable(73) %0) unnamed_addr #1 comdat align 2 personality ptr @__gxx_personality_v0 {
  %2 = alloca ptr, align 8
  %3 = alloca ptr, align 8
  %4 = alloca i32, align 4
  store ptr %0, ptr %2, align 8
  %5 = load ptr, ptr %2, align 8
  %6 = getelementptr inbounds %"struct.CryptData::KDF3CacheItem", ptr %5, i32 0, i32 0
  call void @_ZN11SecPasswordC1Ev(ptr noundef nonnull align 8 dereferenceable(25) %6)
  invoke void @_ZN9CryptData13KDF3CacheItem5CleanEv(ptr noundef nonnull align 8 dereferenceable(73) %5)
          to label %7 unwind label %8

7:                                                ; preds = %1
  ret void

8:                                                ; preds = %1
  %9 = landingpad { ptr, i32 }
          cleanup
  %10 = extractvalue { ptr, i32 } %9, 0
  store ptr %10, ptr %3, align 8
  %11 = extractvalue { ptr, i32 } %9, 1
  store i32 %11, ptr %4, align 4
  call void @_ZN11SecPasswordD1Ev(ptr noundef nonnull align 8 dereferenceable(25) %6) #13
  br label %12

12:                                               ; preds = %8
  %13 = load ptr, ptr %3, align 8
  %14 = load i32, ptr %4, align 4
  %15 = insertvalue { ptr, i32 } poison, ptr %13, 0
  %16 = insertvalue { ptr, i32 } %15, i32 %14, 1
  resume { ptr, i32 } %16
}

; Function Attrs: mustprogress uwtable
define void @_ZN9CryptDataC2Ev(ptr noundef nonnull align 8 dereferenceable(2516) %0) unnamed_addr #1 align 2 personality ptr @__gxx_personality_v0 {
  %2 = alloca ptr, align 8
  %3 = alloca ptr, align 8
  %4 = alloca i32, align 4
  store ptr %0, ptr %2, align 8
  %5 = load ptr, ptr %2, align 8
  %6 = getelementptr inbounds %class.CryptData, ptr %5, i32 0, i32 0
  %7 = getelementptr inbounds [4 x %"struct.CryptData::KDF3CacheItem"], ptr %6, i32 0, i32 0
  %8 = getelementptr inbounds %"struct.CryptData::KDF3CacheItem", ptr %7, i64 4
  br label %9

9:                                                ; preds = %11, %1
  %10 = phi ptr [ %7, %1 ], [ %12, %11 ]
  invoke void @_ZN9CryptData13KDF3CacheItemC2Ev(ptr noundef nonnull align 8 dereferenceable(73) %10)
          to label %11 unwind label %31

11:                                               ; preds = %9
  %12 = getelementptr inbounds %"struct.CryptData::KDF3CacheItem", ptr %10, i64 1
  %13 = icmp eq ptr %12, %8
  br i1 %13, label %14, label %9

14:                                               ; preds = %11
  %15 = getelementptr inbounds %class.CryptData, ptr %5, i32 0, i32 3
  %16 = getelementptr inbounds [4 x %"struct.CryptData::KDF5CacheItem"], ptr %15, i32 0, i32 0
  %17 = getelementptr inbounds %"struct.CryptData::KDF5CacheItem", ptr %16, i64 4
  br label %18

18:                                               ; preds = %20, %14
  %19 = phi ptr [ %16, %14 ], [ %21, %20 ]
  invoke void @_ZN9CryptData13KDF5CacheItemC2Ev(ptr noundef nonnull align 8 dereferenceable(148) %19)
          to label %20 unwind label %41

20:                                               ; preds = %18
  %21 = getelementptr inbounds %"struct.CryptData::KDF5CacheItem", ptr %19, i64 1
  %22 = icmp eq ptr %21, %17
  br i1 %22, label %23, label %18

23:                                               ; preds = %20
  %24 = getelementptr inbounds %class.CryptData, ptr %5, i32 0, i32 6
  invoke void @_ZN8RijndaelC1Ev(ptr noundef nonnull align 4 dereferenceable(264) %24)
          to label %25 unwind label %51

25:                                               ; preds = %23
  %26 = getelementptr inbounds %class.CryptData, ptr %5, i32 0, i32 5
  store i32 0, ptr %26, align 4
  %27 = getelementptr inbounds %class.CryptData, ptr %5, i32 0, i32 1
  store i32 0, ptr %27, align 8
  %28 = getelementptr inbounds %class.CryptData, ptr %5, i32 0, i32 4
  store i32 0, ptr %28, align 8
  %29 = getelementptr inbounds %class.CryptData, ptr %5, i32 0, i32 7
  %30 = getelementptr inbounds [256 x i32], ptr %29, i64 0, i64 0
  call void @llvm.memset.p0.i64(ptr align 8 %30, i8 0, i64 1024, i1 false)
  ret void

31:                                               ; preds = %9
  %32 = landingpad { ptr, i32 }
          cleanup
  %33 = extractvalue { ptr, i32 } %32, 0
  store ptr %33, ptr %3, align 8
  %34 = extractvalue { ptr, i32 } %32, 1
  store i32 %34, ptr %4, align 4
  %35 = icmp eq ptr %7, %10
  br i1 %35, label %40, label %36

36:                                               ; preds = %36, %31
  %37 = phi ptr [ %10, %31 ], [ %38, %36 ]
  %38 = getelementptr inbounds %"struct.CryptData::KDF3CacheItem", ptr %37, i64 -1
  call void @_ZN9CryptData13KDF3CacheItemD2Ev(ptr noundef nonnull align 8 dereferenceable(73) %38) #13
  %39 = icmp eq ptr %38, %7
  br i1 %39, label %40, label %36

40:                                               ; preds = %36, %31
  br label %70

41:                                               ; preds = %18
  %42 = landingpad { ptr, i32 }
          cleanup
  %43 = extractvalue { ptr, i32 } %42, 0
  store ptr %43, ptr %3, align 8
  %44 = extractvalue { ptr, i32 } %42, 1
  store i32 %44, ptr %4, align 4
  %45 = icmp eq ptr %16, %19
  br i1 %45, label %50, label %46

46:                                               ; preds = %46, %41
  %47 = phi ptr [ %19, %41 ], [ %48, %46 ]
  %48 = getelementptr inbounds %"struct.CryptData::KDF5CacheItem", ptr %47, i64 -1
  call void @_ZN9CryptData13KDF5CacheItemD2Ev(ptr noundef nonnull align 8 dereferenceable(148) %48) #13
  %49 = icmp eq ptr %48, %16
  br i1 %49, label %50, label %46

50:                                               ; preds = %46, %41
  br label %62

51:                                               ; preds = %23
  %52 = landingpad { ptr, i32 }
          cleanup
  %53 = extractvalue { ptr, i32 } %52, 0
  store ptr %53, ptr %3, align 8
  %54 = extractvalue { ptr, i32 } %52, 1
  store i32 %54, ptr %4, align 4
  %55 = getelementptr inbounds [4 x %"struct.CryptData::KDF5CacheItem"], ptr %15, i32 0, i32 0
  %56 = getelementptr inbounds %"struct.CryptData::KDF5CacheItem", ptr %55, i64 4
  br label %57

57:                                               ; preds = %57, %51
  %58 = phi ptr [ %56, %51 ], [ %59, %57 ]
  %59 = getelementptr inbounds %"struct.CryptData::KDF5CacheItem", ptr %58, i64 -1
  call void @_ZN9CryptData13KDF5CacheItemD2Ev(ptr noundef nonnull align 8 dereferenceable(148) %59) #13
  %60 = icmp eq ptr %59, %55
  br i1 %60, label %61, label %57

61:                                               ; preds = %57
  br label %62

62:                                               ; preds = %61, %50
  %63 = getelementptr inbounds [4 x %"struct.CryptData::KDF3CacheItem"], ptr %6, i32 0, i32 0
  %64 = getelementptr inbounds %"struct.CryptData::KDF3CacheItem", ptr %63, i64 4
  br label %65

65:                                               ; preds = %65, %62
  %66 = phi ptr [ %64, %62 ], [ %67, %65 ]
  %67 = getelementptr inbounds %"struct.CryptData::KDF3CacheItem", ptr %66, i64 -1
  call void @_ZN9CryptData13KDF3CacheItemD2Ev(ptr noundef nonnull align 8 dereferenceable(73) %67) #13
  %68 = icmp eq ptr %67, %63
  br i1 %68, label %69, label %65

69:                                               ; preds = %65
  br label %70

70:                                               ; preds = %69, %40
  %71 = load ptr, ptr %3, align 8
  %72 = load i32, ptr %4, align 4
  %73 = insertvalue { ptr, i32 } poison, ptr %71, 0
  %74 = insertvalue { ptr, i32 } %73, i32 %72, 1
  resume { ptr, i32 } %74
}