; Function Attrs: mustprogress uwtable
define void @_ZN9CryptDataC2Ev(ptr noundef nonnull align 8 dereferenceable(2516) %0) unnamed_addr #1 align 2 personality ptr @__gxx_personality_v0 {
  %2 = getelementptr inbounds nuw i8, ptr %0, i64 320
  br label %3

3:                                                ; preds = %_ZN9CryptData13KDF3CacheItemC2Ev.exit, %1
  %.idx = phi i64 [ 0, %1 ], [ %.add, %_ZN9CryptData13KDF3CacheItemC2Ev.exit ]
  %.ptr = getelementptr inbounds nuw i8, ptr %0, i64 %.idx
  invoke void @_ZN11SecPasswordC1Ev(ptr noundef nonnull align 8 dereferenceable(73) %.ptr)
          to label %.noexc unwind label %25

.noexc:                                           ; preds = %3
  %4 = getelementptr inbounds nuw i8, ptr %.ptr, i64 32
  invoke void @_Z9cleandataPvm(ptr noundef nonnull %4, i64 noundef 8)
          to label %.noexc.i unwind label %8

.noexc.i:                                         ; preds = %.noexc
  %5 = getelementptr inbounds nuw i8, ptr %.ptr, i64 40
  invoke void @_Z9cleandataPvm(ptr noundef nonnull %5, i64 noundef 16)
          to label %.noexc2.i unwind label %8

.noexc2.i:                                        ; preds = %.noexc.i
  %6 = getelementptr inbounds nuw i8, ptr %.ptr, i64 56
  invoke void @_Z9cleandataPvm(ptr noundef nonnull %6, i64 noundef 16)
          to label %.noexc3.i unwind label %8

.noexc3.i:                                        ; preds = %.noexc2.i
  %7 = getelementptr inbounds nuw i8, ptr %.ptr, i64 72
  invoke void @_Z9cleandataPvm(ptr noundef nonnull %7, i64 noundef 1)
          to label %_ZN9CryptData13KDF3CacheItemC2Ev.exit unwind label %8

8:                                                ; preds = %.noexc3.i, %.noexc2.i, %.noexc.i, %.noexc
  %9 = landingpad { ptr, i32 }
          cleanup
  tail call void @_ZN11SecPasswordD1Ev(ptr noundef nonnull align 8 dereferenceable(73) %.ptr) #20
  br label %.body

_ZN9CryptData13KDF3CacheItemC2Ev.exit:            ; preds = %.noexc3.i
  %.add = add nuw nsw i64 %.idx, 80
  %10 = icmp eq i64 %.add, 320
  br i1 %10, label %.preheader35, label %3

.preheader35:                                     ; preds = %_ZN9CryptData13KDF3CacheItemC2Ev.exit, %_ZN9CryptData13KDF5CacheItemC2Ev.exit
  %.idx11 = phi i64 [ %.add12, %_ZN9CryptData13KDF5CacheItemC2Ev.exit ], [ 328, %_ZN9CryptData13KDF3CacheItemC2Ev.exit ]
  %.ptr13.ptr = getelementptr inbounds nuw i8, ptr %0, i64 %.idx11
  invoke void @_ZN11SecPasswordC1Ev(ptr noundef nonnull align 8 dereferenceable(148) %.ptr13.ptr)
          to label %.noexc30 unwind label %31

.noexc30:                                         ; preds = %.preheader35
  %11 = getelementptr inbounds nuw i8, ptr %.ptr13.ptr, i64 32
  invoke void @_Z9cleandataPvm(ptr noundef nonnull %11, i64 noundef 16)
          to label %.noexc.i27 unwind label %16

.noexc.i27:                                       ; preds = %.noexc30
  %12 = getelementptr inbounds nuw i8, ptr %.ptr13.ptr, i64 48
  invoke void @_Z9cleandataPvm(ptr noundef nonnull %12, i64 noundef 32)
          to label %.noexc2.i28 unwind label %16

.noexc2.i28:                                      ; preds = %.noexc.i27
  %13 = getelementptr inbounds nuw i8, ptr %.ptr13.ptr, i64 80
  invoke void @_Z9cleandataPvm(ptr noundef nonnull %13, i64 noundef 4)
          to label %.noexc3.i29 unwind label %16

.noexc3.i29:                                      ; preds = %.noexc2.i28
  %14 = getelementptr inbounds nuw i8, ptr %.ptr13.ptr, i64 84
  invoke void @_Z9cleandataPvm(ptr noundef nonnull %14, i64 noundef 32)
          to label %.noexc4.i unwind label %16

.noexc4.i:                                        ; preds = %.noexc3.i29
  %15 = getelementptr inbounds nuw i8, ptr %.ptr13.ptr, i64 116
  invoke void @_Z9cleandataPvm(ptr noundef nonnull %15, i64 noundef 32)
          to label %_ZN9CryptData13KDF5CacheItemC2Ev.exit unwind label %16

16:                                               ; preds = %.noexc4.i, %.noexc3.i29, %.noexc2.i28, %.noexc.i27, %.noexc30
  %17 = landingpad { ptr, i32 }
          cleanup
  tail call void @_ZN11SecPasswordD1Ev(ptr noundef nonnull align 8 dereferenceable(148) %.ptr13.ptr) #20
  br label %.body31

_ZN9CryptData13KDF5CacheItemC2Ev.exit:            ; preds = %.noexc4.i
  %.add12 = add nuw nsw i64 %.idx11, 152
  %18 = icmp samesign eq i64 %.add12, 936
  br i1 %18, label %19, label %.preheader35

19:                                               ; preds = %_ZN9CryptData13KDF5CacheItemC2Ev.exit
  %20 = getelementptr inbounds nuw i8, ptr %0, i64 944
  invoke void @_ZN8RijndaelC1Ev(ptr noundef nonnull align 4 dereferenceable(264) %20)
          to label %21 unwind label %35

21:                                               ; preds = %19
  %22 = getelementptr inbounds nuw i8, ptr %0, i64 940
  store i32 0, ptr %22, align 4
  store i32 0, ptr %2, align 8
  %23 = getelementptr inbounds nuw i8, ptr %0, i64 936
  store i32 0, ptr %23, align 8
  %24 = getelementptr inbounds nuw i8, ptr %0, i64 1208
  tail call void @llvm.memset.p0.i64(ptr noundef nonnull align 8 dereferenceable(1024) %24, i8 0, i64 1024, i1 false)
  ret void

25:                                               ; preds = %3
  %26 = landingpad { ptr, i32 }
          cleanup
  br label %.body

.body:                                            ; preds = %8, %25
  %eh.lpad-body = phi { ptr, i32 } [ %26, %25 ], [ %9, %8 ]
  %27 = icmp samesign eq i64 %.idx, 0
  br i1 %27, label %.loopexit, label %.preheader36

.preheader36:                                     ; preds = %.body, %.preheader36
  %28 = phi ptr [ %29, %.preheader36 ], [ %.ptr, %.body ]
  %29 = getelementptr inbounds i8, ptr %28, i64 -80
  tail call void @_ZN9CryptData13KDF3CacheItemD2Ev(ptr noundef nonnull align 8 dereferenceable(73) %29) #20
  %30 = icmp eq ptr %29, %0
  br i1 %30, label %.loopexit, label %.preheader36

31:                                               ; preds = %.preheader35
  %32 = landingpad { ptr, i32 }
          cleanup
  br label %.body31

.body31:                                          ; preds = %16, %31
  %eh.lpad-body32 = phi { ptr, i32 } [ %32, %31 ], [ %17, %16 ]
  %33 = icmp eq i64 %.idx11, 328
  br i1 %33, label %.loopexit33, label %.preheader

.preheader:                                       ; preds = %.body31, %.preheader
  %.idx16 = phi i64 [ %.add17, %.preheader ], [ %.idx11, %.body31 ]
  %.add17 = add nsw i64 %.idx16, -152
  %.ptr19 = getelementptr inbounds i8, ptr %0, i64 %.add17
  tail call void @_ZN9CryptData13KDF5CacheItemD2Ev(ptr noundef nonnull align 8 dereferenceable(148) %.ptr19) #20
  %34 = icmp eq i64 %.add17, 328
  br i1 %34, label %.loopexit33, label %.preheader

35:                                               ; preds = %19
  %36 = landingpad { ptr, i32 }
          cleanup
  br label %37

37:                                               ; preds = %37, %35
  %.idx20 = phi i64 [ 936, %35 ], [ %.add21, %37 ]
  %.add21 = add nsw i64 %.idx20, -152
  %.ptr23 = getelementptr inbounds i8, ptr %0, i64 %.add21
  tail call void @_ZN9CryptData13KDF5CacheItemD2Ev(ptr noundef nonnull align 8 dereferenceable(148) %.ptr23) #20
  %38 = icmp eq i64 %.add21, 328
  br i1 %38, label %.loopexit33, label %37

.loopexit33:                                      ; preds = %.preheader, %37, %.body31
  %.pn = phi { ptr, i32 } [ %eh.lpad-body32, %.body31 ], [ %36, %37 ], [ %eh.lpad-body32, %.preheader ]
  br label %39

39:                                               ; preds = %39, %.loopexit33
  %40 = phi ptr [ %2, %.loopexit33 ], [ %41, %39 ]
  %41 = getelementptr inbounds i8, ptr %40, i64 -80
  tail call void @_ZN9CryptData13KDF3CacheItemD2Ev(ptr noundef nonnull align 8 dereferenceable(73) %41) #20
  %42 = icmp eq ptr %41, %0
  br i1 %42, label %.loopexit, label %39

.loopexit:                                        ; preds = %.preheader36, %39, %.body
  %.pn.pn = phi { ptr, i32 } [ %eh.lpad-body, %.body ], [ %.pn, %39 ], [ %eh.lpad-body, %.preheader36 ]
  resume { ptr, i32 } %.pn.pn
}